target datalayout = "e-m:e-p270:32:32-p271:32:32-p272:64:64-i64:64-i128:128-f80:128-n8:16:32:64-S128"
target triple = "x86_64-pc-linux-gnu"

%"class.icu_77::Calendar" = type <{ %"class.icu_77::UObject", [24 x i32], [24 x i8], i8, [7 x i8], double, ptr, i8, i16, i8, i32, i32, i32, i8, i8, i16, [4 x i8], ptr, ptr }>
%"class.icu_77::UObject" = type { ptr }
%"class.icu_77::LocalPointer" = type { %"class.icu_77::LocalPointerBase" }
%"class.icu_77::LocalPointerBase" = type { ptr }

@_ZN6icu_778Calendar16kMonthPrecedenceE = external constant [0 x [12 x [8 x i32]]], align 4

; Function Attrs: mustprogress nounwind uwtable
define linkonce_odr void @_ZN6icu_7716LocalPointerBaseINS_8CalendarEED2Ev(ptr noundef nonnull align 8 dereferenceable(8) %0) unnamed_addr #3 comdat align 2 {
  %2 = alloca ptr, align 8
  store ptr %0, ptr %2, align 8, !tbaa !70
  ret void
}

; Function Attrs: mustprogress nounwind uwtable
define linkonce_odr void @_ZN6icu_7716LocalPointerBaseINS_8CalendarEEC2EPS1_(ptr noundef nonnull align 8 dereferenceable(8) %0, ptr noundef %1) unnamed_addr #3 comdat align 2 {
  %3 = alloca ptr, align 8
  %4 = alloca ptr, align 8
  store ptr %0, ptr %3, align 8, !tbaa !70
  store ptr %1, ptr %4, align 8, !tbaa !36
  %5 = load ptr, ptr %3, align 8
  %6 = getelementptr inbounds nuw %"class.icu_77::LocalPointerBase", ptr %5, i32 0, i32 0
  %7 = load ptr, ptr %4, align 8, !tbaa !36
  store ptr %7, ptr %6, align 8, !tbaa !72
  ret void
}

; Function Attrs: mustprogress nounwind uwtable
define linkonce_odr void @_ZN6icu_7712LocalPointerINS_8CalendarEED2Ev(ptr noundef nonnull align 8 dereferenceable(8) %0) unnamed_addr #3 comdat align 2 {
  %2 = alloca ptr, align 8
  store ptr %0, ptr %2, align 8, !tbaa !68
  %3 = load ptr, ptr %2, align 8
  %4 = getelementptr inbounds nuw %"class.icu_77::LocalPointerBase", ptr %3, i32 0, i32 0
  %5 = load ptr, ptr %4, align 8, !tbaa !72
  %6 = icmp eq ptr %5, null
  br i1 %6, label %11, label %7

7:                                                ; preds = %1
  %8 = load ptr, ptr %5, align 8, !tbaa !11
  %9 = getelementptr inbounds ptr, ptr %8, i64 1
  %10 = load ptr, ptr %9, align 8
  call void %10(ptr noundef nonnull align 8 dereferenceable(192) %5) #13
  br label %11

11:                                               ; preds = %7, %1
  call void @_ZN6icu_7716LocalPointerBaseINS_8CalendarEED2Ev(ptr noundef nonnull align 8 dereferenceable(8) %3) #13
  ret void
}

; Function Attrs: inlinehint mustprogress nounwind uwtable
define linkonce_odr void @_ZN6icu_778Calendar11internalSetE19UCalendarDateFieldsi(ptr noundef nonnull align 8 dereferenceable(192) %0, i32 noundef %1, i32 noundef %2) #4 comdat align 2 {
  %4 = alloca ptr, align 8
  %5 = alloca i32, align 4
  %6 = alloca i32, align 4
  store ptr %0, ptr %4, align 8, !tbaa !36
  store i32 %1, ptr %5, align 4, !tbaa !25
  store i32 %2, ptr %6, align 4, !tbaa !29
  %7 = load ptr, ptr %4, align 8
  %8 = load i32, ptr %6, align 4, !tbaa !29
  %9 = getelementptr inbounds nuw %"class.icu_77::Calendar", ptr %7, i32 0, i32 1
  %10 = load i32, ptr %5, align 4, !tbaa !25
  %11 = zext i32 %10 to i64
  %12 = getelementptr inbounds nuw [24 x i32], ptr %9, i64 0, i64 %11
  store i32 %8, ptr %12, align 4, !tbaa !29
  %13 = getelementptr inbounds nuw %"class.icu_77::Calendar", ptr %7, i32 0, i32 2
  %14 = load i32, ptr %5, align 4, !tbaa !25
  %15 = zext i32 %14 to i64
  %16 = getelementptr inbounds nuw [24 x i8], ptr %13, i64 0, i64 %15
  store i8 1, ptr %16, align 1, !tbaa !38
  ret void
}

; Function Attrs: mustprogress nounwind uwtable
define linkonce_odr noundef ptr @_ZNK6icu_7716LocalPointerBaseINS_8CalendarEEptEv(ptr noundef nonnull align 8 dereferenceable(8) %0) #3 comdat align 2 {
  %2 = alloca ptr, align 8
  store ptr %0, ptr %2, align 8, !tbaa !70
  %3 = load ptr, ptr %2, align 8
  %4 = getelementptr inbounds nuw %"class.icu_77::LocalPointerBase", ptr %3, i32 0, i32 0
  %5 = load ptr, ptr %4, align 8, !tbaa !72
  ret ptr %5
}

; Function Attrs: mustprogress uwtable
define linkonce_odr void @_ZN6icu_7712LocalPointerINS_8CalendarEEC2EPS1_(ptr noundef nonnull align 8 dereferenceable(8) %0, ptr noundef %1) unnamed_addr #0 comdat align 2 {
  %3 = alloca ptr, align 8
  %4 = alloca ptr, align 8
  store ptr %0, ptr %3, align 8, !tbaa !68
  store ptr %1, ptr %4, align 8, !tbaa !36
  %5 = load ptr, ptr %3, align 8
  %6 = load ptr, ptr %4, align 8, !tbaa !36
  call void @_ZN6icu_7716LocalPointerBaseINS_8CalendarEEC2EPS1_(ptr noundef nonnull align 8 dereferenceable(8) %5, ptr noundef %6)
  ret void
}

; Function Attrs: inlinehint mustprogress nounwind uwtable
define linkonce_odr noundef i32 @_ZNK6icu_778Calendar11internalGetE19UCalendarDateFields(ptr noundef nonnull align 8 dereferenceable(192) %0, i32 noundef %1) #4 comdat align 2 {
  %3 = alloca ptr, align 8
  %4 = alloca i32, align 4
  store ptr %0, ptr %3, align 8, !tbaa !36
  store i32 %1, ptr %4, align 4, !tbaa !25
  %5 = load ptr, ptr %3, align 8
  %6 = getelementptr inbounds nuw %"class.icu_77::Calendar", ptr %5, i32 0, i32 1
  %7 = load i32, ptr %4, align 4, !tbaa !25
  %8 = zext i32 %7 to i64
  %9 = getelementptr inbounds nuw [24 x i32], ptr %6, i64 0, i64 %8
  %10 = load i32, ptr %9, align 4, !tbaa !29
  ret i32 %10
}

; Function Attrs: inlinehint mustprogress nounwind uwtable
define internal noundef signext i8 @_ZL9U_FAILURE10UErrorCode(i32 noundef %0) #4 {
  %2 = alloca i32, align 4
  store i32 %0, ptr %2, align 4, !tbaa !30
  %3 = load i32, ptr %2, align 4, !tbaa !30
  %4 = icmp sgt i32 %3, 0
  %5 = zext i1 %4 to i8
  ret i8 %5
}

; Function Attrs: mustprogress uwtable
define noundef i32 @_ZNK6icu_7715ChineseCalendar16internalGetMonthER10UErrorCode(ptr noundef nonnull align 8 dereferenceable(193) %0, ptr noundef nonnull align 4 dereferenceable(4) %1) unnamed_addr #0 align 2 personality ptr @__gxx_personality_v0 {
  %3 = alloca i32, align 4
  %4 = alloca ptr, align 8
  %5 = alloca ptr, align 8
  %6 = alloca %"class.icu_77::LocalPointer", align 8
  %7 = alloca ptr, align 8
  %8 = alloca i32, align 4
  %9 = alloca i32, align 4
  %10 = alloca ptr, align 8
  %11 = alloca i32, align 4
  store ptr %0, ptr %4, align 8, !tbaa !3
  store ptr %1, ptr %5, align 8, !tbaa !10
  %12 = load ptr, ptr %4, align 8
  %13 = load ptr, ptr %5, align 8, !tbaa !10
  %14 = load i32, ptr %13, align 4, !tbaa !30
  %15 = call noundef signext i8 @_ZL9U_FAILURE10UErrorCode(i32 noundef %14)
  %16 = icmp ne i8 %15, 0
  br i1 %16, label %17, label %18

17:                                               ; preds = %2
  store i32 0, ptr %3, align 4
  br label %92

18:                                               ; preds = %2
  %19 = call noundef i32 @_ZNK6icu_778Calendar13resolveFieldsEPA12_A8_Ki(ptr noundef nonnull align 8 dereferenceable(192) %12, ptr noundef @_ZN6icu_778Calendar16kMonthPrecedenceE)
  %20 = icmp eq i32 %19, 2
  br i1 %20, label %21, label %23

21:                                               ; preds = %18
  %22 = call noundef i32 @_ZNK6icu_778Calendar11internalGetE19UCalendarDateFields(ptr noundef nonnull align 8 dereferenceable(192) %12, i32 noundef 2)
  store i32 %22, ptr %3, align 4
  br label %92

23:                                               ; preds = %18
  call void @llvm.lifetime.start.p0(i64 8, ptr %6) #13
  %24 = load ptr, ptr %12, align 8, !tbaa !11
  %25 = getelementptr inbounds ptr, ptr %24, i64 3
  %26 = load ptr, ptr %25, align 8
  %27 = call noundef ptr %26(ptr noundef nonnull align 8 dereferenceable(193) %12)
  call void @_ZN6icu_7712LocalPointerINS_8CalendarEEC2EPS1_(ptr noundef nonnull align 8 dereferenceable(8) %6, ptr noundef %27)
  %28 = invoke noundef ptr @_ZNK6icu_7716LocalPointerBaseINS_8CalendarEEptEv(ptr noundef nonnull align 8 dereferenceable(8) %6)
          to label %29 unwind label %52

29:                                               ; preds = %23
  invoke void @_ZN6icu_778Calendar3setE19UCalendarDateFieldsi(ptr noundef nonnull align 8 dereferenceable(192) %28, i32 noundef 2, i32 noundef 0)
          to label %30 unwind label %52

30:                                               ; preds = %29
  %31 = invoke noundef ptr @_ZNK6icu_7716LocalPointerBaseINS_8CalendarEEptEv(ptr noundef nonnull align 8 dereferenceable(8) %6)
          to label %32 unwind label %52

32:                                               ; preds = %30
  invoke void @_ZN6icu_778Calendar3setE19UCalendarDateFieldsi(ptr noundef nonnull align 8 dereferenceable(192) %31, i32 noundef 22, i32 noundef 0)
          to label %33 unwind label %52

33:                                               ; preds = %32
  %34 = invoke noundef ptr @_ZNK6icu_7716LocalPointerBaseINS_8CalendarEEptEv(ptr noundef nonnull align 8 dereferenceable(8) %6)
          to label %35 unwind label %52

35:                                               ; preds = %33
  invoke void @_ZN6icu_778Calendar3setE19UCalendarDateFieldsi(ptr noundef nonnull align 8 dereferenceable(192) %34, i32 noundef 5, i32 noundef 1)
          to label %36 unwind label %52

36:                                               ; preds = %35
  %37 = invoke noundef ptr @_ZNK6icu_7716LocalPointerBaseINS_8CalendarEEptEv(ptr noundef nonnull align 8 dereferenceable(8) %6)
          to label %38 unwind label %52

38:                                               ; preds = %36
  %39 = invoke noundef i32 @_ZNK6icu_778Calendar11internalGetE19UCalendarDateFields(ptr noundef nonnull align 8 dereferenceable(192) %12, i32 noundef 23)
          to label %40 unwind label %52

40:                                               ; preds = %38
  %41 = load ptr, ptr %5, align 8, !tbaa !10
  %42 = load ptr, ptr %37, align 8, !tbaa !11
  %43 = getelementptr inbounds ptr, ptr %42, i64 9
  %44 = load ptr, ptr %43, align 8
  invoke void %44(ptr noundef nonnull align 8 dereferenceable(192) %37, i32 noundef 2, i32 noundef %39, ptr noundef nonnull align 4 dereferenceable(4) %41)
          to label %45 unwind label %52

45:                                               ; preds = %40
  %46 = load ptr, ptr %5, align 8, !tbaa !10
  %47 = load i32, ptr %46, align 4, !tbaa !30
  %48 = invoke noundef signext i8 @_ZL9U_FAILURE10UErrorCode(i32 noundef %47)
          to label %49 unwind label %52

49:                                               ; preds = %45
  %50 = icmp ne i8 %48, 0
  br i1 %50, label %51, label %56

51:                                               ; preds = %49
  store i32 0, ptr %3, align 4
  store i32 1, ptr %9, align 4
  br label %90

52:                                               ; preds = %45, %40, %38, %36, %35, %33, %32, %30, %29, %23
  %53 = landingpad { ptr, i32 }
          cleanup
  %54 = extractvalue { ptr, i32 } %53, 0
  store ptr %54, ptr %7, align 8
  %55 = extractvalue { ptr, i32 } %53, 1
  store i32 %55, ptr %8, align 4
  br label %91

56:                                               ; preds = %49
  call void @llvm.lifetime.start.p0(i64 8, ptr %10) #13
  store ptr %12, ptr %10, align 8, !tbaa !3
  %57 = load ptr, ptr %10, align 8, !tbaa !3
  %58 = invoke noundef ptr @_ZNK6icu_7716LocalPointerBaseINS_8CalendarEEptEv(ptr noundef nonnull align 8 dereferenceable(8) %6)
          to label %59 unwind label %75

59:                                               ; preds = %56
  %60 = load ptr, ptr %5, align 8, !tbaa !10
  %61 = invoke noundef i32 @_ZNK6icu_778Calendar3getE19UCalendarDateFieldsR10UErrorCode(ptr noundef nonnull align 8 dereferenceable(192) %58, i32 noundef 22, ptr noundef nonnull align 4 dereferenceable(4) %60)
          to label %62 unwind label %75

62:                                               ; preds = %59
  invoke void @_ZN6icu_778Calendar11internalSetE19UCalendarDateFieldsi(ptr noundef nonnull align 8 dereferenceable(192) %57, i32 noundef 22, i32 noundef %61)
          to label %63 unwind label %75

63:                                               ; preds = %62
  call void @llvm.lifetime.start.p0(i64 4, ptr %11) #13
  %64 = invoke noundef ptr @_ZNK6icu_7716LocalPointerBaseINS_8CalendarEEptEv(ptr noundef nonnull align 8 dereferenceable(8) %6)
          to label %65 unwind label %79

65:                                               ; preds = %63
  %66 = load ptr, ptr %5, align 8, !tbaa !10
  %67 = invoke noundef i32 @_ZNK6icu_778Calendar3getE19UCalendarDateFieldsR10UErrorCode(ptr noundef nonnull align 8 dereferenceable(192) %64, i32 noundef 2, ptr noundef nonnull align 4 dereferenceable(4) %66)
          to label %68 unwind label %79

68:                                               ; preds = %65
  store i32 %67, ptr %11, align 4, !tbaa !29
  %69 = load ptr, ptr %5, align 8, !tbaa !10
  %70 = load i32, ptr %69, align 4, !tbaa !30
  %71 = invoke noundef signext i8 @_ZL9U_FAILURE10UErrorCode(i32 noundef %70)
          to label %72 unwind label %79

72:                                               ; preds = %68
  %73 = icmp ne i8 %71, 0
  br i1 %73, label %74, label %83

74:                                               ; preds = %72
  store i32 0, ptr %3, align 4
  store i32 1, ptr %9, align 4
  br label %88

75:                                               ; preds = %62, %59, %56
  %76 = landingpad { ptr, i32 }
          cleanup
  %77 = extractvalue { ptr, i32 } %76, 0
  store ptr %77, ptr %7, align 8
  %78 = extractvalue { ptr, i32 } %76, 1
  store i32 %78, ptr %8, align 4
  br label %89

79:                                               ; preds = %83, %68, %65, %63
  %80 = landingpad { ptr, i32 }
          cleanup
  %81 = extractvalue { ptr, i32 } %80, 0
  store ptr %81, ptr %7, align 8
  %82 = extractvalue { ptr, i32 } %80, 1
  store i32 %82, ptr %8, align 4
  call void @llvm.lifetime.end.p0(i64 4, ptr %11) #13
  br label %89

83:                                               ; preds = %72
  %84 = load ptr, ptr %10, align 8, !tbaa !3
  %85 = load i32, ptr %11, align 4, !tbaa !29
  invoke void @_ZN6icu_778Calendar11internalSetE19UCalendarDateFieldsi(ptr noundef nonnull align 8 dereferenceable(192) %84, i32 noundef 2, i32 noundef %85)
          to label %86 unwind label %79

86:                                               ; preds = %83
  %87 = load i32, ptr %11, align 4, !tbaa !29
  store i32 %87, ptr %3, align 4
  store i32 1, ptr %9, align 4
  br label %88

88:                                               ; preds = %86, %74
  call void @llvm.lifetime.end.p0(i64 4, ptr %11) #13
  call void @llvm.lifetime.end.p0(i64 8, ptr %10) #13
  br label %90

89:                                               ; preds = %79, %75
  call void @llvm.lifetime.end.p0(i64 8, ptr %10) #13
  br label %91

90:                                               ; preds = %88, %51
  call void @_ZN6icu_7712LocalPointerINS_8CalendarEED2Ev(ptr noundef nonnull align 8 dereferenceable(8) %6) #13
  call void @llvm.lifetime.end.p0(i64 8, ptr %6) #13
  br label %92

91:                                               ; preds = %89, %52
  call void @_ZN6icu_7712LocalPointerINS_8CalendarEED2Ev(ptr noundef nonnull align 8 dereferenceable(8) %6) #13
  call void @llvm.lifetime.end.p0(i64 8, ptr %6) #13
  br label %94

92:                                               ; preds = %90, %21, %17
  %93 = load i32, ptr %3, align 4
  ret i32 %93

94:                                               ; preds = %91
  %95 = load ptr, ptr %7, align 8
  %96 = load i32, ptr %8, align 4
  %97 = insertvalue { ptr, i32 } poison, ptr %95, 0
  %98 = insertvalue { ptr, i32 } %97, i32 %96, 1
  resume { ptr, i32 } %98
}