; Function Attrs: mustprogress uwtable
define noundef i32 @_ZNK6icu_7715ChineseCalendar16internalGetMonthER10UErrorCode(ptr noundef nonnull align 8 dereferenceable(193) %0, ptr noundef nonnull align 4 dereferenceable(4) %1) unnamed_addr #0 align 2 personality ptr @__gxx_personality_v0 {
  %3 = load i32, ptr %1, align 4, !tbaa !21
  %4 = icmp slt i32 %3, 1
  br i1 %4, label %5, label %51

5:                                                ; preds = %2
  %6 = tail call noundef i32 @_ZNK6icu_778Calendar13resolveFieldsEPA12_A8_Ki(ptr noundef nonnull align 8 dereferenceable(192) %0, ptr noundef nonnull @_ZN6icu_778Calendar16kMonthPrecedenceE)
  %7 = icmp eq i32 %6, 2
  br i1 %7, label %8, label %11

8:                                                ; preds = %5
  %9 = getelementptr inbounds nuw i8, ptr %0, i64 16
  %10 = load i32, ptr %9, align 8, !tbaa !20
  br label %51

11:                                               ; preds = %5
  %12 = load ptr, ptr %0, align 8, !tbaa !3
  %13 = getelementptr inbounds nuw i8, ptr %12, i64 24
  %14 = load ptr, ptr %13, align 8
  %15 = tail call noundef ptr %14(ptr noundef nonnull align 8 dereferenceable(193) %0)
  invoke void @_ZN6icu_778Calendar3setE19UCalendarDateFieldsi(ptr noundef nonnull align 8 dereferenceable(192) %15, i32 noundef 2, i32 noundef 0)
          to label %16 unwind label %27

16:                                               ; preds = %11
  invoke void @_ZN6icu_778Calendar3setE19UCalendarDateFieldsi(ptr noundef nonnull align 8 dereferenceable(192) %15, i32 noundef 22, i32 noundef 0)
          to label %17 unwind label %27

17:                                               ; preds = %16
  invoke void @_ZN6icu_778Calendar3setE19UCalendarDateFieldsi(ptr noundef nonnull align 8 dereferenceable(192) %15, i32 noundef 5, i32 noundef 1)
          to label %18 unwind label %27

18:                                               ; preds = %17
  %19 = getelementptr inbounds nuw i8, ptr %0, i64 100
  %20 = load i32, ptr %19, align 4, !tbaa !20
  %21 = load ptr, ptr %15, align 8, !tbaa !3
  %22 = getelementptr inbounds nuw i8, ptr %21, i64 72
  %23 = load ptr, ptr %22, align 8
  invoke void %23(ptr noundef nonnull align 8 dereferenceable(192) %15, i32 noundef 2, i32 noundef %20, ptr noundef nonnull align 4 dereferenceable(4) %1)
          to label %24 unwind label %27

24:                                               ; preds = %18
  %25 = load i32, ptr %1, align 4, !tbaa !21
  %26 = icmp slt i32 %25, 1
  br i1 %26, label %29, label %_ZN6icu_7712LocalPointerINS_8CalendarEED2Ev.exit

27:                                               ; preds = %18, %17, %16, %11
  %28 = landingpad { ptr, i32 }
          cleanup
  br label %_ZN6icu_7712LocalPointerINS_8CalendarEED2Ev.exit21

29:                                               ; preds = %24
  %30 = invoke noundef i32 @_ZNK6icu_778Calendar3getE19UCalendarDateFieldsR10UErrorCode(ptr noundef nonnull align 8 dereferenceable(192) %15, i32 noundef 22, ptr noundef nonnull align 4 dereferenceable(4) %1)
          to label %31 unwind label %38

31:                                               ; preds = %29
  %32 = getelementptr inbounds nuw i8, ptr %0, i64 96
  store i32 %30, ptr %32, align 8, !tbaa !20
  %33 = getelementptr inbounds nuw i8, ptr %0, i64 126
  store i8 1, ptr %33, align 2, !tbaa !23
  %34 = invoke noundef i32 @_ZNK6icu_778Calendar3getE19UCalendarDateFieldsR10UErrorCode(ptr noundef nonnull align 8 dereferenceable(192) %15, i32 noundef 2, ptr noundef nonnull align 4 dereferenceable(4) %1)
          to label %35 unwind label %40

35:                                               ; preds = %31
  %36 = load i32, ptr %1, align 4, !tbaa !21
  %37 = icmp slt i32 %36, 1
  br i1 %37, label %42, label %_ZN6icu_7712LocalPointerINS_8CalendarEED2Ev.exit

38:                                               ; preds = %29
  %39 = landingpad { ptr, i32 }
          cleanup
  br label %_ZN6icu_7712LocalPointerINS_8CalendarEED2Ev.exit21

40:                                               ; preds = %31
  %41 = landingpad { ptr, i32 }
          cleanup
  br label %_ZN6icu_7712LocalPointerINS_8CalendarEED2Ev.exit21

42:                                               ; preds = %35
  %43 = getelementptr inbounds nuw i8, ptr %0, i64 16
  store i32 %34, ptr %43, align 8, !tbaa !20
  %44 = getelementptr inbounds nuw i8, ptr %0, i64 106
  store i8 1, ptr %44, align 2, !tbaa !23
  br label %_ZN6icu_7712LocalPointerINS_8CalendarEED2Ev.exit

_ZN6icu_7712LocalPointerINS_8CalendarEED2Ev.exit: ; preds = %42, %35, %24
  %.1 = phi i32 [ 0, %24 ], [ %34, %42 ], [ 0, %35 ]
  %45 = load ptr, ptr %15, align 8, !tbaa !3
  %46 = getelementptr inbounds nuw i8, ptr %45, i64 8
  %47 = load ptr, ptr %46, align 8
  tail call void %47(ptr noundef nonnull align 8 dereferenceable(192) %15) #8
  br label %51

_ZN6icu_7712LocalPointerINS_8CalendarEED2Ev.exit21: ; preds = %38, %40, %27
  %.pn.pn = phi { ptr, i32 } [ %28, %27 ], [ %41, %40 ], [ %39, %38 ]
  %48 = load ptr, ptr %15, align 8, !tbaa !3
  %49 = getelementptr inbounds nuw i8, ptr %48, i64 8
  %50 = load ptr, ptr %49, align 8
  tail call void %50(ptr noundef nonnull align 8 dereferenceable(192) %15) #8
  resume { ptr, i32 } %.pn.pn

51:                                               ; preds = %2, %_ZN6icu_7712LocalPointerINS_8CalendarEED2Ev.exit, %8
  %.0 = phi i32 [ %10, %8 ], [ %.1, %_ZN6icu_7712LocalPointerINS_8CalendarEED2Ev.exit ], [ 0, %2 ]
  ret i32 %.0
}